; Function Attrs: null_pointer_is_valid sspstrong uwtable
define internal i32 @dissect_per_External_encoding(ptr noundef %0, i32 noundef %1, ptr noundef %2, ptr noundef %3, i32 noundef %4) #0 {
  %.not = icmp eq ptr %2, null
  br i1 %.not, label %6, label %7

6:                                                ; preds = %5
  tail call void (ptr, ...) @proto_report_dissector_bug(ptr noundef nonnull @.str.23, ptr noundef nonnull @.str.24, i32 noundef 2737, ptr noundef nonnull @.str.187) #12
  unreachable

7:                                                ; preds = %5
  %8 = load i32, ptr @ett_per_External_encoding, align 4
  %9 = getelementptr inbounds nuw i8, ptr %2, i64 84
  %10 = tail call i32 @dissect_per_choice(ptr noundef %0, i32 noundef %1, ptr noundef nonnull %2, ptr noundef %3, i32 noundef %4, i32 noundef %8, ptr noundef nonnull @External_encoding_choice, ptr noundef nonnull %9)
  ret i32 %10
}